target datalayout = "e-m:e-p270:32:32-p271:32:32-p272:64:64-i64:64-i128:128-f80:128-n8:16:32:64-S128"
target triple = "x86_64-pc-linux-gnu"

%struct.epan_uat = type { ptr, i64, ptr, i8, ptr, i32, ptr, ptr, ptr, ptr, ptr, ptr, ptr, ptr, ptr, i32, ptr, ptr, ptr, i8, ptr, ptr, i8 }

; Function Attrs: null_pointer_is_valid sspstrong uwtable
define ptr @uat_get_actual_filename(ptr noundef %0, i1 noundef zeroext %1) #0 {
  %3 = alloca ptr, align 8
  %4 = alloca ptr, align 8
  %5 = alloca i8, align 1
  %6 = alloca ptr, align 8
  %7 = alloca ptr, align 8
  %8 = alloca i32, align 4
  store ptr %0, ptr %4, align 8
  %9 = zext i1 %1 to i8
  store i8 %9, ptr %5, align 1
  call void @llvm.lifetime.start.p0(i64 8, ptr %6) #13
  store ptr null, ptr %6, align 8
  %10 = load ptr, ptr %4, align 8
  %11 = getelementptr inbounds nuw %struct.epan_uat, ptr %10, i32 0, i32 2
  %12 = load ptr, ptr %11, align 8
  %13 = load ptr, ptr %4, align 8
  %14 = getelementptr inbounds nuw %struct.epan_uat, ptr %13, i32 0, i32 3
  %15 = load i8, ptr %14, align 8, !range !6, !noundef !7
  %16 = trunc i8 %15 to i1
  %17 = call ptr @get_persconffile_path(ptr noundef %12, i1 noundef zeroext %16)
  store ptr %17, ptr %6, align 8
  %18 = load i8, ptr %5, align 1, !range !6, !noundef !7
  %19 = trunc i8 %18 to i1
  br i1 %19, label %37, label %20

20:                                               ; preds = %2
  %21 = load ptr, ptr %6, align 8
  %22 = call zeroext i1 @file_exists(ptr noundef %21)
  br i1 %22, label %37, label %23

23:                                               ; preds = %20
  call void @llvm.lifetime.start.p0(i64 8, ptr %7) #13
  %24 = load ptr, ptr %4, align 8
  %25 = getelementptr inbounds nuw %struct.epan_uat, ptr %24, i32 0, i32 2
  %26 = load ptr, ptr %25, align 8
  %27 = call ptr @get_datafile_path(ptr noundef %26)
  store ptr %27, ptr %7, align 8
  %28 = load ptr, ptr %7, align 8
  %29 = call zeroext i1 @file_exists(ptr noundef %28)
  br i1 %29, label %30, label %33

30:                                               ; preds = %23
  %31 = load ptr, ptr %6, align 8
  call void @g_free(ptr noundef %31)
  %32 = load ptr, ptr %7, align 8
  store ptr %32, ptr %3, align 8
  store i32 1, ptr %8, align 4
  br label %36

33:                                               ; preds = %23
  %34 = load ptr, ptr %7, align 8
  call void @g_free(ptr noundef %34)
  %35 = load ptr, ptr %6, align 8
  call void @g_free(ptr noundef %35)
  store ptr null, ptr %3, align 8
  store i32 1, ptr %8, align 4
  br label %36

36:                                               ; preds = %33, %30
  call void @llvm.lifetime.end.p0(i64 8, ptr %7) #13
  br label %39

37:                                               ; preds = %20, %2
  %38 = load ptr, ptr %6, align 8
  store ptr %38, ptr %3, align 8
  store i32 1, ptr %8, align 4
  br label %39

39:                                               ; preds = %37, %36
  call void @llvm.lifetime.end.p0(i64 8, ptr %6) #13
  %40 = load ptr, ptr %3, align 8
  ret ptr %40
}