; Function Attrs: null_pointer_is_valid sspstrong uwtable
define ptr @uat_get_actual_filename(ptr noundef readonly captures(none) %0, i1 noundef zeroext %1) local_unnamed_addr #0 {
  %3 = getelementptr inbounds nuw i8, ptr %0, i64 16
  %4 = load ptr, ptr %3, align 8
  %5 = getelementptr inbounds nuw i8, ptr %0, i64 24
  %6 = load i8, ptr %5, align 8, !range !9, !noundef !10
  %7 = trunc nuw i8 %6 to i1
  %8 = tail call ptr @get_persconffile_path(ptr noundef %4, i1 noundef zeroext %7)
  br i1 %1, label %16, label %9

9:                                                ; preds = %2
  %10 = tail call zeroext i1 @file_exists(ptr noundef %8)
  br i1 %10, label %16, label %11

11:                                               ; preds = %9
  %12 = load ptr, ptr %3, align 8
  %13 = tail call ptr @get_datafile_path(ptr noundef %12)
  %14 = tail call zeroext i1 @file_exists(ptr noundef %13)
  br i1 %14, label %.sink.split, label %15

15:                                               ; preds = %11
  tail call void @g_free(ptr noundef %13)
  br label %.sink.split

.sink.split:                                      ; preds = %11, %15
  %.1.ph = phi ptr [ null, %15 ], [ %13, %11 ]
  tail call void @g_free(ptr noundef %8)
  br label %16

16:                                               ; preds = %.sink.split, %2, %9
  %.1 = phi ptr [ %8, %9 ], [ %8, %2 ], [ %.1.ph, %.sink.split ]
  ret ptr %.1
}